target datalayout = "e-m:e-p270:32:32-p271:32:32-p272:64:64-i64:64-i128:128-f80:128-n8:16:32:64-S128"
target triple = "x86_64-pc-linux-gnu"

%struct.coder = type { i32, i32, i32, i32 }

; Function Attrs: inlinehint nounwind uwtable
define void @Ptngc_out8bits(ptr noundef %0, ptr noundef %1) #4 {
  %3 = alloca ptr, align 8
  %4 = alloca ptr, align 8
  %5 = alloca i32, align 4
  %6 = alloca i8, align 1
  store ptr %0, ptr %3, align 8, !tbaa !3
  store ptr %1, ptr %4, align 8, !tbaa !11
  br label %7

7:                                                ; preds = %12, %2
  %8 = load ptr, ptr %3, align 8, !tbaa !3
  %9 = getelementptr inbounds nuw %struct.coder, ptr %8, i32 0, i32 1
  %10 = load i32, ptr %9, align 4, !tbaa !8
  %11 = icmp sge i32 %10, 8
  br i1 %11, label %12, label %41

12:                                               ; preds = %7
  call void @llvm.lifetime.start.p0(i64 4, ptr %5) #5
  call void @llvm.lifetime.start.p0(i64 1, ptr %6) #5
  %13 = load ptr, ptr %3, align 8, !tbaa !3
  %14 = getelementptr inbounds nuw %struct.coder, ptr %13, i32 0, i32 1
  %15 = load i32, ptr %14, align 4, !tbaa !8
  %16 = sub nsw i32 %15, 8
  store i32 %16, ptr %14, align 4, !tbaa !8
  %17 = load ptr, ptr %3, align 8, !tbaa !3
  %18 = getelementptr inbounds nuw %struct.coder, ptr %17, i32 0, i32 1
  %19 = load i32, ptr %18, align 4, !tbaa !8
  %20 = shl i32 255, %19
  %21 = xor i32 %20, -1
  store i32 %21, ptr %5, align 4, !tbaa !14
  %22 = load ptr, ptr %3, align 8, !tbaa !3
  %23 = getelementptr inbounds nuw %struct.coder, ptr %22, i32 0, i32 0
  %24 = load i32, ptr %23, align 4, !tbaa !15
  %25 = load ptr, ptr %3, align 8, !tbaa !3
  %26 = getelementptr inbounds nuw %struct.coder, ptr %25, i32 0, i32 1
  %27 = load i32, ptr %26, align 4, !tbaa !8
  %28 = lshr i32 %24, %27
  %29 = trunc i32 %28 to i8
  store i8 %29, ptr %6, align 1, !tbaa !16
  %30 = load i8, ptr %6, align 1, !tbaa !16
  %31 = load ptr, ptr %4, align 8, !tbaa !11
  %32 = load ptr, ptr %31, align 8, !tbaa !17
  store i8 %30, ptr %32, align 1, !tbaa !16
  %33 = load ptr, ptr %4, align 8, !tbaa !11
  %34 = load ptr, ptr %33, align 8, !tbaa !17
  %35 = getelementptr inbounds nuw i8, ptr %34, i32 1
  store ptr %35, ptr %33, align 8, !tbaa !17
  %36 = load i32, ptr %5, align 4, !tbaa !14
  %37 = load ptr, ptr %3, align 8, !tbaa !3
  %38 = getelementptr inbounds nuw %struct.coder, ptr %37, i32 0, i32 0
  %39 = load i32, ptr %38, align 4, !tbaa !15
  %40 = and i32 %39, %36
  store i32 %40, ptr %38, align 4, !tbaa !15
  call void @llvm.lifetime.end.p0(i64 1, ptr %6) #5
  call void @llvm.lifetime.end.p0(i64 4, ptr %5) #5
  br label %7, !llvm.loop !19

41:                                               ; preds = %7
  ret void
}