; Function Attrs: inlinehint nofree norecurse nosync nounwind memory(write, argmem: readwrite, inaccessiblemem: none) uwtable
define void @Ptngc_out8bits(ptr noundef captures(none) %0, ptr noundef captures(none) %1) local_unnamed_addr #5 {
  %3 = getelementptr inbounds nuw i8, ptr %0, i64 4
  %4 = load i32, ptr %3, align 4, !tbaa !3
  %5 = icmp sgt i32 %4, 7
  br i1 %5, label %.lr.ph.preheader, label %._crit_edge

.lr.ph.preheader:                                 ; preds = %2
  %.pre = load i32, ptr %0, align 4, !tbaa !8
  %.pre9 = load ptr, ptr %1, align 8, !tbaa !9
  br label %.lr.ph

.lr.ph:                                           ; preds = %.lr.ph.preheader, %.lr.ph
  %6 = phi ptr [ %15, %.lr.ph ], [ %.pre9, %.lr.ph.preheader ]
  %7 = phi i32 [ %17, %.lr.ph ], [ %.pre, %.lr.ph.preheader ]
  %8 = phi i32 [ %18, %.lr.ph ], [ %4, %.lr.ph.preheader ]
  %9 = add nsw i32 %8, -8
  store i32 %9, ptr %3, align 4, !tbaa !3
  %10 = shl i32 255, %9
  %11 = xor i32 %10, -1
  %12 = lshr i32 %7, %9
  %13 = trunc i32 %12 to i8
  store i8 %13, ptr %6, align 1, !tbaa !12
  %14 = load ptr, ptr %1, align 8, !tbaa !9
  %15 = getelementptr inbounds nuw i8, ptr %14, i64 1
  store ptr %15, ptr %1, align 8, !tbaa !9
  %16 = load i32, ptr %0, align 4, !tbaa !8
  %17 = and i32 %16, %11
  store i32 %17, ptr %0, align 4, !tbaa !8
  %18 = load i32, ptr %3, align 4, !tbaa !3
  %19 = icmp sgt i32 %18, 7
  br i1 %19, label %.lr.ph, label %._crit_edge, !llvm.loop !13

._crit_edge:                                      ; preds = %.lr.ph, %2
  ret void
}